; Function Attrs: mustprogress uwtable
define void @_ZN15CacheProxyModel14setSourceModelEP18QAbstractItemModel(ptr noundef nonnull align 8 dereferenceable(32) %0, ptr noundef %1) unnamed_addr #0 align 2 personality ptr @__gxx_personality_v0 {
  %3 = alloca { i64, i64 }, align 8
  %4 = alloca { i64, i64 }, align 8
  %5 = alloca { i64, i64 }, align 8
  %6 = alloca { i64, i64 }, align 8
  %7 = alloca %"class.QMetaObject::Connection", align 8
  %.not = icmp eq ptr %1, null
  br i1 %.not, label %13, label %8

8:                                                ; preds = %2
  %9 = getelementptr inbounds i8, ptr %0, i64 16
  tail call void @_ZN18QStandardItemModel5clearEv(ptr noundef nonnull align 8 dereferenceable(16) %9)
  tail call void @_ZN19QIdentityProxyModel14setSourceModelEP18QAbstractItemModel(ptr noundef nonnull align 8 dereferenceable(16) %0, ptr noundef nonnull %1)
  call void @llvm.lifetime.start.p0(i64 16, ptr nonnull %5)
  call void @llvm.lifetime.start.p0(i64 16, ptr nonnull %6)
  store i64 ptrtoint (ptr @_ZN18QAbstractItemModel10modelResetENS_14QPrivateSignalE to i64), ptr %5, align 8, !noalias !4
  %.fca.1.gep14.i = getelementptr inbounds i8, ptr %5, i64 8
  store i64 0, ptr %.fca.1.gep14.i, align 8, !noalias !4
  store i64 ptrtoint (ptr @_ZN15CacheProxyModel15resetCacheModelEv to i64), ptr %6, align 8, !noalias !4
  %.fca.1.gep.i = getelementptr inbounds i8, ptr %6, i64 8
  store i64 0, ptr %.fca.1.gep.i, align 8, !noalias !4
  %10 = tail call noalias noundef nonnull dereferenceable(32) ptr @_Znwm(i64 noundef 32) #8, !noalias !4
  store i32 1, ptr %10, align 4, !noalias !4
  %11 = getelementptr inbounds i8, ptr %10, i64 8
  store ptr @_ZN9QtPrivate11QSlotObjectIM15CacheProxyModelFvvENS_4ListIJEEEvE4implEiPNS_15QSlotObjectBaseEP7QObjectPPvPb, ptr %11, align 8, !noalias !4
  %12 = getelementptr inbounds i8, ptr %10, i64 16
  store i64 ptrtoint (ptr @_ZN15CacheProxyModel15resetCacheModelEv to i64), ptr %12, align 8, !noalias !4
  %.repack7.i.i = getelementptr inbounds i8, ptr %10, i64 24
  store i64 0, ptr %.repack7.i.i, align 8, !noalias !4
  call void @_ZN7QObject11connectImplEPKS_PPvS1_S3_PN9QtPrivate15QSlotObjectBaseEN2Qt14ConnectionTypeEPKiPK11QMetaObject(ptr dead_on_unwind nonnull writable sret(%"class.QMetaObject::Connection") align 8 %7, ptr noundef nonnull %1, ptr noundef nonnull %5, ptr noundef nonnull %0, ptr noundef nonnull %6, ptr noundef nonnull %10, i32 noundef 0, ptr noundef null, ptr noundef nonnull @_ZN18QAbstractItemModel16staticMetaObjectE)
  call void @llvm.lifetime.end.p0(i64 16, ptr nonnull %5)
  call void @llvm.lifetime.end.p0(i64 16, ptr nonnull %6)
  call void @_ZN11QMetaObject10ConnectionD1Ev(ptr noundef nonnull align 8 dereferenceable(8) %7) #7
  br label %20

13:                                               ; preds = %2
  %14 = tail call noundef ptr @_ZNK19QAbstractProxyModel11sourceModelEv(ptr noundef nonnull align 8 dereferenceable(16) %0)
  %.not10 = icmp eq ptr %14, null
  br i1 %.not10, label %18, label %15

15:                                               ; preds = %13
  %16 = tail call noundef ptr @_ZNK19QAbstractProxyModel11sourceModelEv(ptr noundef nonnull align 8 dereferenceable(16) %0)
  call void @llvm.lifetime.start.p0(i64 16, ptr nonnull %3)
  call void @llvm.lifetime.start.p0(i64 16, ptr nonnull %4)
  store i64 ptrtoint (ptr @_ZN18QAbstractItemModel10modelResetENS_14QPrivateSignalE to i64), ptr %3, align 8
  %.fca.1.gep4.i = getelementptr inbounds i8, ptr %3, i64 8
  store i64 0, ptr %.fca.1.gep4.i, align 8
  store i64 ptrtoint (ptr @_ZN15CacheProxyModel15resetCacheModelEv to i64), ptr %4, align 8
  %.fca.1.gep.i11 = getelementptr inbounds i8, ptr %4, i64 8
  store i64 0, ptr %.fca.1.gep.i11, align 8
  %17 = call noundef zeroext i1 @_ZN7QObject14disconnectImplEPKS_PPvS1_S3_PK11QMetaObject(ptr noundef %16, ptr noundef nonnull %3, ptr noundef nonnull %0, ptr noundef nonnull %4, ptr noundef nonnull @_ZN18QAbstractItemModel16staticMetaObjectE)
  call void @llvm.lifetime.end.p0(i64 16, ptr nonnull %3)
  call void @llvm.lifetime.end.p0(i64 16, ptr nonnull %4)
  br label %18

18:                                               ; preds = %15, %13
  %19 = getelementptr inbounds i8, ptr %0, i64 16
  call void @_ZN19QIdentityProxyModel14setSourceModelEP18QAbstractItemModel(ptr noundef nonnull align 8 dereferenceable(16) %0, ptr noundef nonnull %19)
  br label %20

20:                                               ; preds = %18, %8
  ret void
}